; Function Attrs: nounwind uwtable
define noalias nonnull ptr @l_String_fromExpr_x3f___boxed(ptr noundef %0, ptr noundef %1, ptr noundef %2, ptr noundef %3, ptr noundef %4, ptr noundef %5, ptr noundef %6, ptr noundef %7, ptr noundef %8) local_unnamed_addr #0 {
  %10 = tail call ptr @l_Lean_Meta_getStringValue_x3f(ptr noundef %0) #4
  tail call void @lean_inc_heartbeat() #4
  %11 = tail call noalias ptr @mi_malloc_small(i64 noundef 24) #4
  %12 = icmp eq ptr %11, null
  br i1 %12, label %13, label %l_String_fromExpr_x3f.exit

13:                                               ; preds = %9
  tail call void @lean_internal_panic_out_of_memory() #5
  unreachable

l_String_fromExpr_x3f.exit:                       ; preds = %9
  %14 = getelementptr inbounds nuw i8, ptr %11, i64 4
  store i32 1, ptr %11, align 4, !tbaa !4
  store i32 131096, ptr %14, align 4
  %15 = getelementptr inbounds nuw i8, ptr %11, i64 8
  store ptr %10, ptr %15, align 8, !tbaa !9
  %16 = getelementptr inbounds nuw i8, ptr %11, i64 16
  store ptr %8, ptr %16, align 8, !tbaa !9
  %17 = ptrtoint ptr %7 to i64
  %18 = and i64 %17, 1
  %.not = icmp eq i64 %18, 0
  br i1 %.not, label %19, label %lean_dec.exit

19:                                               ; preds = %l_String_fromExpr_x3f.exit
  %20 = load i32, ptr %7, align 4, !tbaa !4
  %21 = icmp sgt i32 %20, 1
  br i1 %21, label %22, label %24, !prof !11

22:                                               ; preds = %19
  %23 = add nsw i32 %20, -1
  store i32 %23, ptr %7, align 4, !tbaa !4
  br label %lean_dec.exit

24:                                               ; preds = %19
  %.not.i33 = icmp eq i32 %20, 0
  br i1 %.not.i33, label %lean_dec.exit, label %25

25:                                               ; preds = %24
  tail call void @lean_dec_ref_cold(ptr noundef nonnull %7) #4
  br label %lean_dec.exit

lean_dec.exit:                                    ; preds = %25, %24, %22, %l_String_fromExpr_x3f.exit
  %26 = ptrtoint ptr %6 to i64
  %27 = and i64 %26, 1
  %.not35 = icmp eq i64 %27, 0
  br i1 %.not35, label %28, label %lean_dec.exit17

28:                                               ; preds = %lean_dec.exit
  %29 = load i32, ptr %6, align 4, !tbaa !4
  %30 = icmp sgt i32 %29, 1
  br i1 %30, label %31, label %33, !prof !11

31:                                               ; preds = %28
  %32 = add nsw i32 %29, -1
  store i32 %32, ptr %6, align 4, !tbaa !4
  br label %lean_dec.exit17

33:                                               ; preds = %28
  %.not.i31 = icmp eq i32 %29, 0
  br i1 %.not.i31, label %lean_dec.exit17, label %34

34:                                               ; preds = %33
  tail call void @lean_dec_ref_cold(ptr noundef nonnull %6) #4
  br label %lean_dec.exit17

lean_dec.exit17:                                  ; preds = %34, %33, %31, %lean_dec.exit
  %35 = ptrtoint ptr %5 to i64
  %36 = and i64 %35, 1
  %.not36 = icmp eq i64 %36, 0
  br i1 %.not36, label %37, label %lean_dec.exit18

37:                                               ; preds = %lean_dec.exit17
  %38 = load i32, ptr %5, align 4, !tbaa !4
  %39 = icmp sgt i32 %38, 1
  br i1 %39, label %40, label %42, !prof !11

40:                                               ; preds = %37
  %41 = add nsw i32 %38, -1
  store i32 %41, ptr %5, align 4, !tbaa !4
  br label %lean_dec.exit18

42:                                               ; preds = %37
  %.not.i29 = icmp eq i32 %38, 0
  br i1 %.not.i29, label %lean_dec.exit18, label %43

43:                                               ; preds = %42
  tail call void @lean_dec_ref_cold(ptr noundef nonnull %5) #4
  br label %lean_dec.exit18

lean_dec.exit18:                                  ; preds = %43, %42, %40, %lean_dec.exit17
  %44 = ptrtoint ptr %4 to i64
  %45 = and i64 %44, 1
  %.not37 = icmp eq i64 %45, 0
  br i1 %.not37, label %46, label %lean_dec.exit19

46:                                               ; preds = %lean_dec.exit18
  %47 = load i32, ptr %4, align 4, !tbaa !4
  %48 = icmp sgt i32 %47, 1
  br i1 %48, label %49, label %51, !prof !11

49:                                               ; preds = %46
  %50 = add nsw i32 %47, -1
  store i32 %50, ptr %4, align 4, !tbaa !4
  br label %lean_dec.exit19

51:                                               ; preds = %46
  %.not.i27 = icmp eq i32 %47, 0
  br i1 %.not.i27, label %lean_dec.exit19, label %52

52:                                               ; preds = %51
  tail call void @lean_dec_ref_cold(ptr noundef nonnull %4) #4
  br label %lean_dec.exit19

lean_dec.exit19:                                  ; preds = %52, %51, %49, %lean_dec.exit18
  %53 = ptrtoint ptr %3 to i64
  %54 = and i64 %53, 1
  %.not38 = icmp eq i64 %54, 0
  br i1 %.not38, label %55, label %lean_dec.exit20

55:                                               ; preds = %lean_dec.exit19
  %56 = load i32, ptr %3, align 4, !tbaa !4
  %57 = icmp sgt i32 %56, 1
  br i1 %57, label %58, label %60, !prof !11

58:                                               ; preds = %55
  %59 = add nsw i32 %56, -1
  store i32 %59, ptr %3, align 4, !tbaa !4
  br label %lean_dec.exit20

60:                                               ; preds = %55
  %.not.i25 = icmp eq i32 %56, 0
  br i1 %.not.i25, label %lean_dec.exit20, label %61

61:                                               ; preds = %60
  tail call void @lean_dec_ref_cold(ptr noundef nonnull %3) #4
  br label %lean_dec.exit20

lean_dec.exit20:                                  ; preds = %61, %60, %58, %lean_dec.exit19
  %62 = ptrtoint ptr %2 to i64
  %63 = and i64 %62, 1
  %.not39 = icmp eq i64 %63, 0
  br i1 %.not39, label %64, label %lean_dec.exit21

64:                                               ; preds = %lean_dec.exit20
  %65 = load i32, ptr %2, align 4, !tbaa !4
  %66 = icmp sgt i32 %65, 1
  br i1 %66, label %67, label %69, !prof !11

67:                                               ; preds = %64
  %68 = add nsw i32 %65, -1
  store i32 %68, ptr %2, align 4, !tbaa !4
  br label %lean_dec.exit21

69:                                               ; preds = %64
  %.not.i23 = icmp eq i32 %65, 0
  br i1 %.not.i23, label %lean_dec.exit21, label %70

70:                                               ; preds = %69
  tail call void @lean_dec_ref_cold(ptr noundef nonnull %2) #4
  br label %lean_dec.exit21

lean_dec.exit21:                                  ; preds = %70, %69, %67, %lean_dec.exit20
  %71 = ptrtoint ptr %1 to i64
  %72 = and i64 %71, 1
  %.not40 = icmp eq i64 %72, 0
  br i1 %.not40, label %73, label %lean_dec.exit22

73:                                               ; preds = %lean_dec.exit21
  %74 = load i32, ptr %1, align 4, !tbaa !4
  %75 = icmp sgt i32 %74, 1
  br i1 %75, label %76, label %78, !prof !11

76:                                               ; preds = %73
  %77 = add nsw i32 %74, -1
  store i32 %77, ptr %1, align 4, !tbaa !4
  br label %lean_dec.exit22

78:                                               ; preds = %73
  %.not.i = icmp eq i32 %74, 0
  br i1 %.not.i, label %lean_dec.exit22, label %79

79:                                               ; preds = %78
  tail call void @lean_dec_ref_cold(ptr noundef nonnull %1) #4
  br label %lean_dec.exit22

lean_dec.exit22:                                  ; preds = %79, %78, %76, %lean_dec.exit21
  ret ptr %11
}